target datalayout = "e-m:e-p270:32:32-p271:32:32-p272:64:64-i64:64-i128:128-f80:128-n8:16:32:64-S128"
target triple = "x86_64-pc-linux-gnu"

@stderr = external global ptr, align 8
@displayLevel = internal global i32 2, align 4
@.str.114 = private unnamed_addr constant [5 x i8] c"%s \0A\00", align 1

; Function Attrs: nounwind uwtable
define internal void @errorOut(ptr noundef %0) #0 {
  %2 = alloca ptr, align 8
  store ptr %0, ptr %2, align 8, !tbaa !11
  br label %3

3:                                                ; preds = %1
  %4 = load i32, ptr @displayLevel, align 4, !tbaa !4
  %5 = icmp uge i32 %4, 1
  br i1 %5, label %6, label %10

6:                                                ; preds = %3
  %7 = load ptr, ptr @stderr, align 8, !tbaa !17
  %8 = load ptr, ptr %2, align 8, !tbaa !11
  %9 = call i32 (ptr, ptr, ...) @fprintf(ptr noundef %7, ptr noundef @.str.114, ptr noundef %8) #12
  br label %10

10:                                               ; preds = %6, %3
  br label %11

11:                                               ; preds = %10
  call void @exit(i32 noundef 1) #15
  unreachable
}