; Function Attrs: cold nofree noreturn nounwind uwtable
define internal fastcc void @errorOut() unnamed_addr #10 {
  %1 = load i32, ptr @displayLevel, align 4, !tbaa !9
  %.not = icmp eq i32 %1, 0
  br i1 %.not, label %5, label %2

2:                                                ; preds = %0
  %3 = load ptr, ptr @stderr, align 8, !tbaa !11
  %4 = tail call i32 (ptr, ptr, ...) @fprintf(ptr noundef %3, ptr noundef nonnull @.str.114, ptr noundef nonnull @.str.38) #23
  br label %5

5:                                                ; preds = %0, %2
  tail call void @exit(i32 noundef 1) #27
  unreachable
}